target datalayout = "e-m:e-p270:32:32-p271:32:32-p272:64:64-i64:64-i128:128-f80:128-n8:16:32:64-S128"
target triple = "x86_64-pc-linux-gnu"

%struct.Gli_Obj_t_ = type { i32, i32, ptr, i32, %union.anon, %union.anon.0, [0 x i32] }
%union.anon = type { i32 }
%union.anon.0 = type { i32 }

; Function Attrs: nounwind uwtable
define void @Gli_ObjAddFanin(ptr noundef %0, ptr noundef %1) #0 {
  %3 = alloca ptr, align 8
  %4 = alloca ptr, align 8
  store ptr %0, ptr %3, align 8, !tbaa !27
  store ptr %1, ptr %4, align 8, !tbaa !27
  %5 = load ptr, ptr %3, align 8, !tbaa !27
  %6 = getelementptr inbounds nuw %struct.Gli_Obj_t_, ptr %5, i32 0, i32 1
  %7 = load i32, ptr %6, align 4, !tbaa !29
  %8 = load ptr, ptr %4, align 8, !tbaa !27
  %9 = getelementptr inbounds nuw %struct.Gli_Obj_t_, ptr %8, i32 0, i32 1
  %10 = load i32, ptr %9, align 4, !tbaa !29
  %11 = sub i32 %7, %10
  %12 = load ptr, ptr %3, align 8, !tbaa !27
  %13 = getelementptr inbounds nuw %struct.Gli_Obj_t_, ptr %12, i32 0, i32 6
  %14 = load ptr, ptr %3, align 8, !tbaa !27
  %15 = getelementptr inbounds nuw %struct.Gli_Obj_t_, ptr %14, i32 0, i32 4
  %16 = load i32, ptr %15, align 4, !tbaa !36
  %17 = add nsw i32 %16, 1
  store i32 %17, ptr %15, align 4, !tbaa !36
  %18 = sext i32 %16 to i64
  %19 = getelementptr inbounds [0 x i32], ptr %13, i64 0, i64 %18
  store i32 %11, ptr %19, align 4, !tbaa !3
  %20 = load ptr, ptr %4, align 8, !tbaa !27
  %21 = getelementptr inbounds nuw %struct.Gli_Obj_t_, ptr %20, i32 0, i32 6
  %22 = load ptr, ptr %4, align 8, !tbaa !27
  %23 = load i32, ptr %22, align 8
  %24 = lshr i32 %23, 4
  %25 = and i32 %24, 7
  %26 = load ptr, ptr %4, align 8, !tbaa !27
  %27 = getelementptr inbounds nuw %struct.Gli_Obj_t_, ptr %26, i32 0, i32 5
  %28 = load i32, ptr %27, align 8, !tbaa !36
  %29 = add nsw i32 %28, 1
  store i32 %29, ptr %27, align 8, !tbaa !36
  %30 = add nsw i32 %25, %28
  %31 = sext i32 %30 to i64
  %32 = getelementptr inbounds [0 x i32], ptr %21, i64 0, i64 %31
  store i32 %11, ptr %32, align 4, !tbaa !3
  ret void
}