; Function Attrs: mustprogress nofree norecurse nosync nounwind willreturn memory(argmem: readwrite) uwtable
define void @Gli_ObjAddFanin(ptr noundef captures(none) %0, ptr noundef captures(none) %1) local_unnamed_addr #8 {
  %3 = getelementptr inbounds nuw i8, ptr %0, i64 4
  %4 = load i32, ptr %3, align 4, !tbaa !23
  %5 = getelementptr inbounds nuw i8, ptr %1, i64 4
  %6 = load i32, ptr %5, align 4, !tbaa !23
  %7 = sub i32 %4, %6
  %8 = getelementptr inbounds nuw i8, ptr %0, i64 28
  %9 = getelementptr inbounds nuw i8, ptr %0, i64 20
  %10 = load i32, ptr %9, align 4, !tbaa !31
  %11 = add nsw i32 %10, 1
  store i32 %11, ptr %9, align 4, !tbaa !31
  %12 = sext i32 %10 to i64
  %13 = getelementptr inbounds [0 x i32], ptr %8, i64 0, i64 %12
  store i32 %7, ptr %13, align 4, !tbaa !26
  %14 = getelementptr inbounds nuw i8, ptr %1, i64 28
  %15 = load i32, ptr %1, align 8
  %16 = lshr i32 %15, 4
  %17 = and i32 %16, 7
  %18 = getelementptr inbounds nuw i8, ptr %1, i64 24
  %19 = load i32, ptr %18, align 8, !tbaa !31
  %20 = add nsw i32 %19, 1
  store i32 %20, ptr %18, align 8, !tbaa !31
  %21 = add nsw i32 %17, %19
  %22 = sext i32 %21 to i64
  %23 = getelementptr inbounds [0 x i32], ptr %14, i64 0, i64 %22
  store i32 %7, ptr %23, align 4, !tbaa !26
  ret void
}